target datalayout = "e-m:e-p270:32:32-p271:32:32-p272:64:64-i64:64-i128:128-f80:128-n8:16:32:64-S128"
target triple = "x86_64-pc-linux-gnu"

%struct.NarrowPtrStruct = type { ptr, i32, i8 }
%class.ReferenceProcessor = type { %class.ReferenceDiscoverer, ptr, i8, i8, i8, i32, ptr, ptr, i32, i32, ptr, ptr, ptr, ptr, ptr }
%class.ReferenceDiscoverer = type { ptr }
%class.DiscoveredList = type { ptr, i32, i64 }

@UseCompressedOops = external global i8, align 1
@ParallelRefProcBalancingEnabled = external global i8, align 1
@_ZN14CompressedOops11_narrow_oopE = external global %struct.NarrowPtrStruct, align 8

; Function Attrs: mustprogress nounwind uwtable
define linkonce_odr hidden noundef ptr @_Z11cast_to_oopImEP7oopDescT_(i64 noundef %0) #1 comdat {
  %2 = alloca i64, align 8
  store i64 %0, ptr %2, align 8
  %3 = load i64, ptr %2, align 8
  %4 = inttoptr i64 %3 to ptr
  ret ptr %4
}

; Function Attrs: mustprogress nounwind uwtable
define linkonce_odr hidden noundef i32 @_ZN14CompressedOops5shiftEv() #1 comdat align 2 {
  %1 = load i32, ptr getelementptr inbounds (%struct.NarrowPtrStruct, ptr @_ZN14CompressedOops11_narrow_oopE, i32 0, i32 1), align 8
  ret i32 %1
}

; Function Attrs: mustprogress nounwind uwtable
define linkonce_odr hidden noundef ptr @_ZN14CompressedOops4baseEv() #1 comdat align 2 {
  %1 = load ptr, ptr @_ZN14CompressedOops11_narrow_oopE, align 8
  ret ptr %1
}

; Function Attrs: mustprogress nounwind uwtable
define linkonce_odr hidden noundef ptr @_ZN14CompressedOops10decode_rawE9narrowOop(i32 noundef %0) #1 comdat align 2 {
  %2 = alloca i32, align 4
  store i32 %0, ptr %2, align 4
  %3 = call noundef ptr @_ZN14CompressedOops4baseEv()
  %4 = ptrtoint ptr %3 to i64
  %5 = load i32, ptr %2, align 4
  %6 = zext i32 %5 to i64
  %7 = call noundef i32 @_ZN14CompressedOops5shiftEv()
  %8 = zext i32 %7 to i64
  %9 = shl i64 %6, %8
  %10 = add i64 %4, %9
  %11 = call noundef ptr @_Z11cast_to_oopImEP7oopDescT_(i64 noundef %10)
  ret ptr %11
}

; Function Attrs: mustprogress nounwind uwtable
define linkonce_odr hidden noundef ptr @_ZN14CompressedOops15decode_not_nullE9narrowOop(i32 noundef %0) #1 comdat align 2 {
  %2 = alloca i32, align 4
  %3 = alloca ptr, align 8
  store i32 %0, ptr %2, align 4
  %4 = load i32, ptr %2, align 4
  %5 = call noundef ptr @_ZN14CompressedOops10decode_rawE9narrowOop(i32 noundef %4)
  store ptr %5, ptr %3, align 8
  %6 = load ptr, ptr %3, align 8
  ret ptr %6
}

; Function Attrs: mustprogress nounwind uwtable
define linkonce_odr hidden noundef zeroext i1 @_ZN14CompressedOops7is_nullE9narrowOop(i32 noundef %0) #1 comdat align 2 {
  %2 = alloca i32, align 4
  store i32 %0, ptr %2, align 4
  %3 = load i32, ptr %2, align 4
  %4 = icmp eq i32 %3, 0
  ret i1 %4
}

; Function Attrs: mustprogress nounwind uwtable
define linkonce_odr hidden noundef ptr @_ZN14CompressedOops6decodeE9narrowOop(i32 noundef %0) #1 comdat align 2 {
  %2 = alloca i32, align 4
  store i32 %0, ptr %2, align 4
  %3 = load i32, ptr %2, align 4
  %4 = call noundef zeroext i1 @_ZN14CompressedOops7is_nullE9narrowOop(i32 noundef %3)
  br i1 %4, label %5, label %6

5:                                                ; preds = %1
  br label %9

6:                                                ; preds = %1
  %7 = load i32, ptr %2, align 4
  %8 = call noundef ptr @_ZN14CompressedOops15decode_not_nullE9narrowOop(i32 noundef %7)
  br label %9

9:                                                ; preds = %6, %5
  %10 = phi ptr [ null, %5 ], [ %8, %6 ]
  ret ptr %10
}

; Function Attrs: mustprogress nounwind uwtable
define linkonce_odr hidden noundef ptr @_ZNK14DiscoveredList4headEv(ptr noundef nonnull align 8 dereferenceable(24) %0) #1 comdat align 2 {
  %2 = alloca ptr, align 8
  store ptr %0, ptr %2, align 8
  %3 = load ptr, ptr %2, align 8
  %4 = load i8, ptr @UseCompressedOops, align 1
  %5 = trunc i8 %4 to i1
  br i1 %5, label %6, label %10

6:                                                ; preds = %1
  %7 = getelementptr inbounds %class.DiscoveredList, ptr %3, i32 0, i32 1
  %8 = load i32, ptr %7, align 8
  %9 = call noundef ptr @_ZN14CompressedOops6decodeE9narrowOop(i32 noundef %8)
  br label %13

10:                                               ; preds = %1
  %11 = getelementptr inbounds %class.DiscoveredList, ptr %3, i32 0, i32 0
  %12 = load ptr, ptr %11, align 8
  br label %13

13:                                               ; preds = %10, %6
  %14 = phi ptr [ %9, %6 ], [ %12, %10 ]
  ret ptr %14
}

; Function Attrs: mustprogress nounwind uwtable
define linkonce_odr hidden noundef zeroext i1 @_ZNK14DiscoveredList8is_emptyEv(ptr noundef nonnull align 8 dereferenceable(24) %0) #1 comdat align 2 {
  %2 = alloca ptr, align 8
  store ptr %0, ptr %2, align 8
  %3 = load ptr, ptr %2, align 8
  %4 = call noundef ptr @_ZNK14DiscoveredList4headEv(ptr noundef nonnull align 8 dereferenceable(24) %3)
  %5 = icmp eq ptr %4, null
  ret i1 %5
}

; Function Attrs: mustprogress nounwind uwtable
define hidden noundef zeroext i1 @_ZN18ReferenceProcessor19need_balance_queuesEP14DiscoveredList(ptr noundef nonnull align 8 dereferenceable(88) %0, ptr noundef %1) #1 align 2 {
  %3 = alloca i1, align 1
  %4 = alloca ptr, align 8
  %5 = alloca ptr, align 8
  %6 = alloca i32, align 4
  store ptr %0, ptr %4, align 8
  store ptr %1, ptr %5, align 8
  %7 = load ptr, ptr %4, align 8
  %8 = load i8, ptr @ParallelRefProcBalancingEnabled, align 1
  %9 = trunc i8 %8 to i1
  br i1 %9, label %10, label %11

10:                                               ; preds = %2
  store i1 true, ptr %3, align 1
  br label %31

11:                                               ; preds = %2
  %12 = getelementptr inbounds %class.ReferenceProcessor, ptr %7, i32 0, i32 8
  %13 = load i32, ptr %12, align 8
  store i32 %13, ptr %6, align 4
  br label %14

14:                                               ; preds = %27, %11
  %15 = load i32, ptr %6, align 4
  %16 = getelementptr inbounds %class.ReferenceProcessor, ptr %7, i32 0, i32 9
  %17 = load i32, ptr %16, align 4
  %18 = icmp ult i32 %15, %17
  br i1 %18, label %19, label %30

19:                                               ; preds = %14
  %20 = load ptr, ptr %5, align 8
  %21 = load i32, ptr %6, align 4
  %22 = zext i32 %21 to i64
  %23 = getelementptr inbounds %class.DiscoveredList, ptr %20, i64 %22
  %24 = call noundef zeroext i1 @_ZNK14DiscoveredList8is_emptyEv(ptr noundef nonnull align 8 dereferenceable(24) %23)
  br i1 %24, label %26, label %25

25:                                               ; preds = %19
  store i1 true, ptr %3, align 1
  br label %31

26:                                               ; preds = %19
  br label %27

27:                                               ; preds = %26
  %28 = load i32, ptr %6, align 4
  %29 = add i32 %28, 1
  store i32 %29, ptr %6, align 4
  br label %14, !llvm.loop !15

30:                                               ; preds = %14
  store i1 false, ptr %3, align 1
  br label %31

31:                                               ; preds = %30, %25, %10
  %32 = load i1, ptr %3, align 1
  ret i1 %32
}