; Function Attrs: mustprogress nofree norecurse nosync nounwind willreturn memory(read, inaccessiblemem: none) uwtable
define hidden noundef zeroext i1 @_ZN18ReferenceProcessor19need_balance_queuesEP14DiscoveredList(ptr nocapture noundef nonnull readonly align 8 dereferenceable(88) %0, ptr nocapture noundef readonly %1) local_unnamed_addr #4 align 2 {
  %3 = load i8, ptr @ParallelRefProcBalancingEnabled, align 1
  %4 = trunc i8 %3 to i1
  br i1 %4, label %.loopexit, label %5

5:                                                ; preds = %2
  %6 = getelementptr inbounds i8, ptr %0, i64 40
  %7 = load i32, ptr %6, align 8
  %8 = getelementptr inbounds i8, ptr %0, i64 44
  %9 = load i32, ptr %8, align 4
  %10 = icmp ult i32 %7, %9
  br i1 %10, label %.lr.ph, label %.loopexit

.lr.ph:                                           ; preds = %5
  %11 = load i8, ptr @UseCompressedOops, align 1
  %12 = trunc i8 %11 to i1
  %13 = load i32, ptr getelementptr inbounds (i8, ptr @_ZN14CompressedOops11_narrow_oopE, i64 8), align 8
  %14 = zext nneg i32 %13 to i64
  br i1 %12, label %.lr.ph.split.us, label %_ZNK14DiscoveredList8is_emptyEv.exit.preheader

_ZNK14DiscoveredList8is_emptyEv.exit.preheader:   ; preds = %.lr.ph
  %15 = zext i32 %7 to i64
  %wide.trip.count = zext i32 %9 to i64
  br label %_ZNK14DiscoveredList8is_emptyEv.exit

.lr.ph.split.us:                                  ; preds = %.lr.ph
  %16 = load ptr, ptr @_ZN14CompressedOops11_narrow_oopE, align 8
  %17 = ptrtoint ptr %16 to i64
  %invariant.gep = getelementptr inbounds i8, ptr %1, i64 8
  %18 = zext i32 %7 to i64
  %19 = sub i64 0, %17
  br label %20

20:                                               ; preds = %20, %.lr.ph.split.us
  %indvars.iv12 = phi i64 [ %18, %.lr.ph.split.us ], [ %indvars.iv.next13, %20 ]
  %gep = getelementptr inbounds %class.DiscoveredList, ptr %invariant.gep, i64 %indvars.iv12
  %21 = load i32, ptr %gep, align 8
  %22 = icmp ne i32 %21, 0
  %23 = zext i32 %21 to i64
  %24 = shl i64 %23, %14
  %25 = icmp ne i64 %24, %19
  %or.cond.not = select i1 %22, i1 %25, i1 false
  %indvars.iv.next13 = add nuw nsw i64 %indvars.iv12, 1
  %lftr.wideiv = trunc i64 %indvars.iv.next13 to i32
  %exitcond15.not = icmp eq i32 %9, %lftr.wideiv
  %or.cond = select i1 %or.cond.not, i1 true, i1 %exitcond15.not
  br i1 %or.cond, label %.loopexit, label %20, !llvm.loop !10

_ZNK14DiscoveredList8is_emptyEv.exit:             ; preds = %_ZNK14DiscoveredList8is_emptyEv.exit, %_ZNK14DiscoveredList8is_emptyEv.exit.preheader
  %indvars.iv = phi i64 [ %15, %_ZNK14DiscoveredList8is_emptyEv.exit.preheader ], [ %indvars.iv.next, %_ZNK14DiscoveredList8is_emptyEv.exit ]
  %26 = getelementptr inbounds %class.DiscoveredList, ptr %1, i64 %indvars.iv
  %27 = load ptr, ptr %26, align 8
  %.not = icmp ne ptr %27, null
  %indvars.iv.next = add nuw nsw i64 %indvars.iv, 1
  %exitcond.not = icmp eq i64 %indvars.iv.next, %wide.trip.count
  %or.cond21 = select i1 %.not, i1 true, i1 %exitcond.not
  br i1 %or.cond21, label %.loopexit, label %_ZNK14DiscoveredList8is_emptyEv.exit, !llvm.loop !10

.loopexit:                                        ; preds = %_ZNK14DiscoveredList8is_emptyEv.exit, %20, %5, %2
  %.05 = phi i1 [ true, %2 ], [ false, %5 ], [ %or.cond.not, %20 ], [ %.not, %_ZNK14DiscoveredList8is_emptyEv.exit ]
  ret i1 %.05
}